LIBRARY libADTFStream

EXPORTS
	??0Block@ADTFStream@@QEAA@PEAU_iobuf@@@Z
	??1Block@ADTFStream@@QEAA@XZ
	??0FileIndex@Extensions@ADTFStream@@QEAA@PEAU_iobuf@@_K@Z
	??1FileIndex@Extensions@ADTFStream@@QEAA@XZ
	??0GUID@Extensions@ADTFStream@@QEAA@PEAU_iobuf@@_K@Z
	??1GUID@Extensions@ADTFStream@@QEAA@XZ
	??0Header@Extensions@ADTFStream@@QEAA@PEAU_iobuf@@@Z
	??0IndexAdd@Extensions@ADTFStream@@QEAA@PEAU_iobuf@@_K@Z
	??0MarkerInfo@Extensions@ADTFStream@@QEAA@PEAU_iobuf@@_K@Z
	??1MarkerInfo@Extensions@ADTFStream@@QEAA@XZ
	??0ReferencedFiles@Extensions@ADTFStream@@QEAA@PEAU_iobuf@@_K@Z
	??1ReferencedFiles@Extensions@ADTFStream@@QEAA@XZ
	??0StreamIndex@Extensions@ADTFStream@@QEAA@PEAU_iobuf@@_K@Z
	??1StreamIndex@Extensions@ADTFStream@@QEAA@XZ
	??0Header@File@ADTFStream@@QEAA@PEAU_iobuf@@@Z
	?read@File@ADTFStream@@QEAAPEAVBlock@2@XZ
	?tell@File@ADTFStream@@QEAA_KXZ
	?seek@File@ADTFStream@@QEAAPEAVEntry@FileIndex@Extensions@2@_K@Z
	??0File@ADTFStream@@QEAA@PEBD@Z
	??1?$Extension@VReferencedFiles@Extensions@ADTFStream@@@Extensions@ADTFStream@@QEAA@XZ
	??1?$Extension@VMarkerInfo@Extensions@ADTFStream@@@Extensions@ADTFStream@@QEAA@XZ
	??1?$Extension@VFileIndex@Extensions@ADTFStream@@@Extensions@ADTFStream@@QEAA@XZ
	??1?$Extension@VGUID@Extensions@ADTFStream@@@Extensions@ADTFStream@@QEAA@XZ
	??1File@ADTFStream@@QEAA@XZ
	?start@Reader@File@ADTFStream@@QEAAXV?$function@$$A6AXPEBVBlock@ADTFStream@@@Z@std@@V?$function@$$A6AXXZ@5@@Z
	?produce@Reader@File@ADTFStream@@AEAAXXZ
	?consume@Reader@File@ADTFStream@@AEAAXV?$function@$$A6AXPEBVBlock@ADTFStream@@@Z@std@@V?$function@$$A6AXXZ@5@@Z
	?stop@Reader@File@ADTFStream@@QEAAX_N@Z
	??0Reader@File@ADTFStream@@QEAA@PEBD@Z
	??0Reader@File@ADTFStream@@QEAA@PEAV12@@Z
	??1Reader@File@ADTFStream@@QEAA@XZ
	??1?$unique_lock@Vmutex@std@@@std@@QEAA@XZ
	?_Throw_bad_array_new_length@std@@YAXXZ
	??0bad_array_new_length@std@@QEAA@AEBV01@@Z
	??0bad_alloc@std@@QEAA@AEBV01@@Z
	??0exception@std@@QEAA@AEBV01@@Z
	??1exception@std@@UEAA@XZ
	?what@exception@std@@UEBAPEBDXZ
	?_Tidy@?$deque@PEAVBlock@ADTFStream@@V?$allocator@PEAVBlock@ADTFStream@@@std@@@std@@AEAAXXZ
	??$_Invoke@V?$tuple@P8Reader@File@ADTFStream@@EAAXXZPEAV123@@std@@$0A@$00@thread@std@@CAIPEAX@Z
	??$_Start@P8Reader@File@ADTFStream@@EAAXV?$function@$$A6AXPEBVBlock@ADTFStream@@@Z@std@@V?$function@$$A6AXXZ@5@@ZPEAV123@AEAV45@AEAV65@@thread@std@@AEAAX$$QEAP8Reader@File@ADTFStream@@EAAXV?$function@$$A6AXPEBVBlock@ADTFStream@@@Z@1@V?$function@$$A6AXXZ@1@@Z$$QEAPEAV234@AEAV51@AEAV61@@Z
	??$_Invoke@V?$tuple@P8Reader@File@ADTFStream@@EAAXV?$function@$$A6AXPEBVBlock@ADTFStream@@@Z@std@@V?$function@$$A6AXXZ@5@@ZPEAV123@V45@V65@@std@@$0A@$00$01$02@thread@std@@CAIPEAX@Z
	??1?$unique_ptr@V?$tuple@P8Reader@File@ADTFStream@@EAAXV?$function@$$A6AXPEBVBlock@ADTFStream@@@Z@std@@V?$function@$$A6AXXZ@5@@ZPEAV123@V45@V65@@std@@U?$default_delete@V?$tuple@P8Reader@File@ADTFStream@@EAAXV?$function@$$A6AXPEBVBlock@ADTFStream@@@Z@std@@V?$function@$$A6AXXZ@5@@ZPEAV123@V45@V65@@std@@@2@@std@@QEAA@XZ
	?_Growmap@?$deque@PEAVBlock@ADTFStream@@V?$allocator@PEAVBlock@ADTFStream@@@std@@@std@@AEAAX_K@Z
	?_Xlen@?$deque@PEAVBlock@ADTFStream@@V?$allocator@PEAVBlock@ADTFStream@@@std@@@std@@AEBAXXZ
	??_C@_02JDPG@rb?$AA@
	??_C@_0L@ELJKODNC@index_add0?$AA@
	??_C@_06KLKNJODK@index0?$AA@
	??_C@_09LIOOKFIJ@index_add?$AA@
	??_C@_05FKHKFDID@index?$AA@
	??_C@_04MEIDEPGF@GUID?$AA@
	??_C@_0M@HAMHNHFL@marker_info?$AA@
	??_C@_0BA@IIEJIMMO@referencedfiles?$AA@
	??_R0?AVbad_array_new_length@std@@@8
	_CT??_R0?AVbad_array_new_length@std@@@8??0bad_array_new_length@std@@QEAA@AEBV01@@Z24
	??_R0?AVbad_alloc@std@@@8
	_CT??_R0?AVbad_alloc@std@@@8??0bad_alloc@std@@QEAA@AEBV01@@Z24
	??_R0?AVexception@std@@@8
	_CT??_R0?AVexception@std@@@8??0exception@std@@QEAA@AEBV01@@Z24
	_CTA3?AVbad_array_new_length@std@@
	_TI3?AVbad_array_new_length@std@@
	??_C@_0BF@KINCDENJ@bad?5array?5new?5length?$AA@
	??_R4bad_array_new_length@std@@6B@
	??_R3bad_array_new_length@std@@8
	??_R2bad_array_new_length@std@@8
	??_R1A@?0A@EA@bad_array_new_length@std@@8
	??_R1A@?0A@EA@bad_alloc@std@@8
	??_R3bad_alloc@std@@8
	??_R2bad_alloc@std@@8
	??_R1A@?0A@EA@exception@std@@8
	??_R3exception@std@@8
	??_R2exception@std@@8
	??_R4bad_alloc@std@@6B@
	??_R4exception@std@@6B@
	??_C@_0BC@EOODALEL@Unknown?5exception?$AA@
	??_C@_0BC@KBDMBKEH@deque?$DMT?$DO?5too?5long?$AA@
	??_7bad_array_new_length@std@@6B@
	??_7bad_alloc@std@@6B@
	??_7exception@std@@6B@
	??1Stream@ADTFStream@@QEAA@XZ
